; Function Attrs: mustprogress uwtable
define void @cvFindCornerSubPix(ptr noundef %0, ptr noundef %1, i32 noundef %2, i64 %3, i64 %4, i64 %5, double %6) local_unnamed_addr #6 personality ptr @__gxx_personality_v0 {
  %8 = alloca %"class.cv::Mat", align 8
  %9 = alloca %"class.cv::Mat", align 8
  %10 = alloca %"class.cv::_InputArray", align 8
  %11 = alloca %"class.cv::_InputOutputArray", align 8
  %12 = icmp eq ptr %1, null
  %13 = icmp slt i32 %2, 1
  %or.cond = or i1 %12, %13
  br i1 %or.cond, label %22, label %14

14:                                               ; preds = %7
  call void @_ZN2cv10cvarrToMatEPKvbbiPNS_10AutoBufferIdLm136EEE(ptr dead_on_unwind nonnull writable sret(%"class.cv::Mat") align 8 %8, ptr noundef %0, i1 noundef zeroext false, i1 noundef zeroext true, i32 noundef 0, ptr noundef null)
  invoke void @_ZN2cv3MatC1EiiiPvm(ptr noundef nonnull align 8 dereferenceable(96) %9, i32 noundef %2, i32 noundef 1, i32 noundef 13, ptr noundef nonnull %1, i64 noundef 0)
          to label %15 unwind label %23

15:                                               ; preds = %14
  %16 = getelementptr inbounds i8, ptr %10, i64 16
  store i32 0, ptr %16, align 8
  %17 = getelementptr inbounds i8, ptr %10, i64 20
  store i32 0, ptr %17, align 4
  store i32 16842752, ptr %10, align 8
  %18 = getelementptr inbounds i8, ptr %10, i64 8
  store ptr %8, ptr %18, align 8
  %19 = getelementptr inbounds i8, ptr %11, i64 8
  %20 = getelementptr inbounds i8, ptr %11, i64 16
  store i64 0, ptr %20, align 8
  store i32 50397184, ptr %11, align 8
  store ptr %9, ptr %19, align 8
  invoke void @_ZN2cv12cornerSubPixERKNS_11_InputArrayERKNS_17_InputOutputArrayENS_5Size_IiEES7_NS_12TermCriteriaE(ptr noundef nonnull align 8 dereferenceable(24) %10, ptr noundef nonnull align 8 dereferenceable(24) %11, i64 %3, i64 %4, i64 %5, double %6)
          to label %21 unwind label %25

21:                                               ; preds = %15
  call void @_ZN2cv3MatD1Ev(ptr noundef nonnull align 8 dereferenceable(96) %9) #12
  call void @_ZN2cv3MatD1Ev(ptr noundef nonnull align 8 dereferenceable(96) %8) #12
  br label %22

22:                                               ; preds = %7, %21
  ret void

23:                                               ; preds = %14
  %24 = landingpad { ptr, i32 }
          cleanup
  br label %27

25:                                               ; preds = %15
  %26 = landingpad { ptr, i32 }
          cleanup
  call void @_ZN2cv3MatD1Ev(ptr noundef nonnull align 8 dereferenceable(96) %9) #12
  br label %27

27:                                               ; preds = %25, %23
  %.pn.pn.pn = phi { ptr, i32 } [ %26, %25 ], [ %24, %23 ]
  call void @_ZN2cv3MatD1Ev(ptr noundef nonnull align 8 dereferenceable(96) %8) #12
  resume { ptr, i32 } %.pn.pn.pn
}